target datalayout = "e-m:e-p270:32:32-p271:32:32-p272:64:64-i64:64-i128:128-f80:128-n8:16:32:64-S128"
target triple = "x86_64-pc-linux-gnu"

%struct.anon.2 = type { float, float, float, float }

@.str.51 = private unnamed_addr constant [47 x i8] c"%sA=%12.5e, %sA=%12.5e, %sB=%12.5e, %sB=%12.5e\00", align 1

; Function Attrs: mustprogress uwtable
define internal void @_ZL24printHarmonicInteractionPN3gmx10TextWriterERK9t_iparamsPKcS6_(ptr noundef %0, ptr noundef nonnull align 4 dereferenceable(48) %1, ptr noundef %2, ptr noundef %3) #0 {
  %5 = alloca ptr, align 8
  %6 = alloca ptr, align 8
  %7 = alloca ptr, align 8
  %8 = alloca ptr, align 8
  store ptr %0, ptr %5, align 8, !tbaa !17
  store ptr %1, ptr %6, align 8, !tbaa !11
  store ptr %2, ptr %7, align 8, !tbaa !42
  store ptr %3, ptr %8, align 8, !tbaa !42
  %9 = load ptr, ptr %5, align 8, !tbaa !17
  %10 = load ptr, ptr %7, align 8, !tbaa !42
  %11 = load ptr, ptr %6, align 8, !tbaa !11
  %12 = getelementptr inbounds nuw %struct.anon.2, ptr %11, i32 0, i32 0
  %13 = load float, ptr %12, align 4, !tbaa !19
  %14 = fpext float %13 to double
  %15 = load ptr, ptr %8, align 8, !tbaa !42
  %16 = load ptr, ptr %6, align 8, !tbaa !11
  %17 = getelementptr inbounds nuw %struct.anon.2, ptr %16, i32 0, i32 1
  %18 = load float, ptr %17, align 4, !tbaa !19
  %19 = fpext float %18 to double
  %20 = load ptr, ptr %7, align 8, !tbaa !42
  %21 = load ptr, ptr %6, align 8, !tbaa !11
  %22 = getelementptr inbounds nuw %struct.anon.2, ptr %21, i32 0, i32 2
  %23 = load float, ptr %22, align 4, !tbaa !19
  %24 = fpext float %23 to double
  %25 = load ptr, ptr %8, align 8, !tbaa !42
  %26 = load ptr, ptr %6, align 8, !tbaa !11
  %27 = getelementptr inbounds nuw %struct.anon.2, ptr %26, i32 0, i32 3
  %28 = load float, ptr %27, align 4, !tbaa !19
  %29 = fpext float %28 to double
  call void (ptr, ptr, ...) @_ZN3gmx10TextWriter18writeLineFormattedEPKcz(ptr noundef nonnull align 8 dereferenceable(8) %9, ptr noundef @.str.51, ptr noundef %10, double noundef %14, ptr noundef %15, double noundef %19, ptr noundef %20, double noundef %24, ptr noundef %25, double noundef %29)
  ret void
}