; Function Attrs: mustprogress uwtable
define internal fastcc void @_ZL24printHarmonicInteractionPN3gmx10TextWriterERK9t_iparamsPKcS6_(ptr noundef nonnull %0, ptr noundef nonnull readonly align 4 captures(none) dereferenceable(48) %1, ptr noundef %2, ptr noundef %3) unnamed_addr #0 {
  %5 = load float, ptr %1, align 4, !tbaa !15
  %6 = fpext float %5 to double
  %7 = getelementptr inbounds nuw i8, ptr %1, i64 4
  %8 = load float, ptr %7, align 4, !tbaa !15
  %9 = fpext float %8 to double
  %10 = getelementptr inbounds nuw i8, ptr %1, i64 8
  %11 = load float, ptr %10, align 4, !tbaa !15
  %12 = fpext float %11 to double
  %13 = getelementptr inbounds nuw i8, ptr %1, i64 12
  %14 = load float, ptr %13, align 4, !tbaa !15
  %15 = fpext float %14 to double
  tail call void (ptr, ptr, ...) @_ZN3gmx10TextWriter18writeLineFormattedEPKcz(ptr noundef nonnull align 8 dereferenceable(8) %0, ptr noundef nonnull @.str.51, ptr noundef %2, double noundef %6, ptr noundef %3, double noundef %9, ptr noundef %2, double noundef %12, ptr noundef %3, double noundef %15)
  ret void
}